target datalayout = "e-m:e-p270:32:32-p271:32:32-p272:64:64-i64:64-i128:128-f80:128-n8:16:32:64-S128"
target triple = "x86_64-pc-linux-gnu"

%struct.H5HF_huge_bt2_ctx_t = type { i8, i8 }
%struct.H5HF_huge_bt2_indir_rec_t = type { i64, i64, i64 }

@H5HF_init_g = external global i8, align 1
@H5_libterm_g = external global i8, align 1

; Function Attrs: nounwind uwtable
define internal i32 @H5HF__huge_bt2_indir_decode(ptr noundef %0, ptr noundef %1, ptr noundef %2) #0 {
  %4 = alloca ptr, align 8
  %5 = alloca ptr, align 8
  %6 = alloca ptr, align 8
  %7 = alloca ptr, align 8
  %8 = alloca ptr, align 8
  %9 = alloca i64, align 8
  %10 = alloca i64, align 8
  store ptr %0, ptr %4, align 8, !tbaa !27
  store ptr %1, ptr %5, align 8, !tbaa !3
  store ptr %2, ptr %6, align 8, !tbaa !3
  call void @llvm.lifetime.start.p0(i64 8, ptr %7) #6
  %11 = load ptr, ptr %6, align 8, !tbaa !3
  store ptr %11, ptr %7, align 8, !tbaa !13
  call void @llvm.lifetime.start.p0(i64 8, ptr %8) #6
  %12 = load ptr, ptr %5, align 8, !tbaa !3
  store ptr %12, ptr %8, align 8, !tbaa !29
  %13 = load i8, ptr @H5HF_init_g, align 1, !tbaa !9, !range !11, !noundef !12
  %14 = trunc i8 %13 to i1
  br i1 %14, label %19, label %15

15:                                               ; preds = %3
  %16 = load i8, ptr @H5_libterm_g, align 1, !tbaa !9, !range !11, !noundef !12
  %17 = trunc i8 %16 to i1
  %18 = xor i1 %17, true
  br label %19

19:                                               ; preds = %15, %3
  %20 = phi i1 [ true, %3 ], [ %18, %15 ]
  %21 = xor i1 %20, true
  %22 = xor i1 %21, true
  %23 = zext i1 %22 to i32
  %24 = sext i32 %23 to i64
  %25 = call i64 @llvm.expect.i64(i64 %24, i64 1)
  %26 = icmp ne i64 %25, 0
  br i1 %26, label %27, label %262

27:                                               ; preds = %19
  %28 = load ptr, ptr %7, align 8, !tbaa !13
  %29 = getelementptr inbounds nuw %struct.H5HF_huge_bt2_ctx_t, ptr %28, i32 0, i32 1
  %30 = load i8, ptr %29, align 1, !tbaa !17
  %31 = zext i8 %30 to i64
  %32 = load ptr, ptr %8, align 8, !tbaa !29
  %33 = getelementptr inbounds nuw %struct.H5HF_huge_bt2_indir_rec_t, ptr %32, i32 0, i32 0
  call void @H5F_addr_decode_len(i64 noundef %31, ptr noundef %4, ptr noundef %33)
  br label %34

34:                                               ; preds = %27
  %35 = load ptr, ptr %7, align 8, !tbaa !13
  %36 = getelementptr inbounds nuw %struct.H5HF_huge_bt2_ctx_t, ptr %35, i32 0, i32 0
  %37 = load i8, ptr %36, align 1, !tbaa !19
  %38 = zext i8 %37 to i32
  switch i32 %38, label %144 [
    i32 4, label %39
    i32 8, label %88
    i32 2, label %117
  ]

39:                                               ; preds = %34
  br label %40

40:                                               ; preds = %39
  %41 = load ptr, ptr %4, align 8, !tbaa !27
  %42 = load i8, ptr %41, align 1, !tbaa !33
  %43 = zext i8 %42 to i32
  %44 = and i32 %43, 255
  %45 = zext i32 %44 to i64
  %46 = load ptr, ptr %8, align 8, !tbaa !29
  %47 = getelementptr inbounds nuw %struct.H5HF_huge_bt2_indir_rec_t, ptr %46, i32 0, i32 1
  store i64 %45, ptr %47, align 8, !tbaa !32
  %48 = load ptr, ptr %4, align 8, !tbaa !27
  %49 = getelementptr inbounds nuw i8, ptr %48, i32 1
  store ptr %49, ptr %4, align 8, !tbaa !27
  %50 = load ptr, ptr %4, align 8, !tbaa !27
  %51 = load i8, ptr %50, align 1, !tbaa !33
  %52 = zext i8 %51 to i32
  %53 = and i32 %52, 255
  %54 = shl i32 %53, 8
  %55 = zext i32 %54 to i64
  %56 = load ptr, ptr %8, align 8, !tbaa !29
  %57 = getelementptr inbounds nuw %struct.H5HF_huge_bt2_indir_rec_t, ptr %56, i32 0, i32 1
  %58 = load i64, ptr %57, align 8, !tbaa !32
  %59 = or i64 %58, %55
  store i64 %59, ptr %57, align 8, !tbaa !32
  %60 = load ptr, ptr %4, align 8, !tbaa !27
  %61 = getelementptr inbounds nuw i8, ptr %60, i32 1
  store ptr %61, ptr %4, align 8, !tbaa !27
  %62 = load ptr, ptr %4, align 8, !tbaa !27
  %63 = load i8, ptr %62, align 1, !tbaa !33
  %64 = zext i8 %63 to i32
  %65 = and i32 %64, 255
  %66 = shl i32 %65, 16
  %67 = zext i32 %66 to i64
  %68 = load ptr, ptr %8, align 8, !tbaa !29
  %69 = getelementptr inbounds nuw %struct.H5HF_huge_bt2_indir_rec_t, ptr %68, i32 0, i32 1
  %70 = load i64, ptr %69, align 8, !tbaa !32
  %71 = or i64 %70, %67
  store i64 %71, ptr %69, align 8, !tbaa !32
  %72 = load ptr, ptr %4, align 8, !tbaa !27
  %73 = getelementptr inbounds nuw i8, ptr %72, i32 1
  store ptr %73, ptr %4, align 8, !tbaa !27
  %74 = load ptr, ptr %4, align 8, !tbaa !27
  %75 = load i8, ptr %74, align 1, !tbaa !33
  %76 = zext i8 %75 to i32
  %77 = and i32 %76, 255
  %78 = shl i32 %77, 24
  %79 = zext i32 %78 to i64
  %80 = load ptr, ptr %8, align 8, !tbaa !29
  %81 = getelementptr inbounds nuw %struct.H5HF_huge_bt2_indir_rec_t, ptr %80, i32 0, i32 1
  %82 = load i64, ptr %81, align 8, !tbaa !32
  %83 = or i64 %82, %79
  store i64 %83, ptr %81, align 8, !tbaa !32
  %84 = load ptr, ptr %4, align 8, !tbaa !27
  %85 = getelementptr inbounds nuw i8, ptr %84, i32 1
  store ptr %85, ptr %4, align 8, !tbaa !27
  br label %86

86:                                               ; preds = %40
  br label %87

87:                                               ; preds = %86
  br label %145

88:                                               ; preds = %34
  br label %89

89:                                               ; preds = %88
  call void @llvm.lifetime.start.p0(i64 8, ptr %9) #6
  %90 = load ptr, ptr %8, align 8, !tbaa !29
  %91 = getelementptr inbounds nuw %struct.H5HF_huge_bt2_indir_rec_t, ptr %90, i32 0, i32 1
  store i64 0, ptr %91, align 8, !tbaa !32
  %92 = load ptr, ptr %4, align 8, !tbaa !27
  %93 = getelementptr inbounds i8, ptr %92, i64 8
  store ptr %93, ptr %4, align 8, !tbaa !27
  store i64 0, ptr %9, align 8, !tbaa !15
  br label %94

94:                                               ; preds = %109, %89
  %95 = load i64, ptr %9, align 8, !tbaa !15
  %96 = icmp ult i64 %95, 8
  br i1 %96, label %97, label %112

97:                                               ; preds = %94
  %98 = load ptr, ptr %8, align 8, !tbaa !29
  %99 = getelementptr inbounds nuw %struct.H5HF_huge_bt2_indir_rec_t, ptr %98, i32 0, i32 1
  %100 = load i64, ptr %99, align 8, !tbaa !32
  %101 = shl i64 %100, 8
  %102 = load ptr, ptr %4, align 8, !tbaa !27
  %103 = getelementptr inbounds i8, ptr %102, i32 -1
  store ptr %103, ptr %4, align 8, !tbaa !27
  %104 = load i8, ptr %103, align 1, !tbaa !33
  %105 = zext i8 %104 to i64
  %106 = or i64 %101, %105
  %107 = load ptr, ptr %8, align 8, !tbaa !29
  %108 = getelementptr inbounds nuw %struct.H5HF_huge_bt2_indir_rec_t, ptr %107, i32 0, i32 1
  store i64 %106, ptr %108, align 8, !tbaa !32
  br label %109

109:                                              ; preds = %97
  %110 = load i64, ptr %9, align 8, !tbaa !15
  %111 = add i64 %110, 1
  store i64 %111, ptr %9, align 8, !tbaa !15
  br label %94, !llvm.loop !39

112:                                              ; preds = %94
  %113 = load ptr, ptr %4, align 8, !tbaa !27
  %114 = getelementptr inbounds i8, ptr %113, i64 8
  store ptr %114, ptr %4, align 8, !tbaa !27
  call void @llvm.lifetime.end.p0(i64 8, ptr %9) #6
  br label %115

115:                                              ; preds = %112
  br label %116

116:                                              ; preds = %115
  br label %145

117:                                              ; preds = %34
  br label %118

118:                                              ; preds = %117
  %119 = load ptr, ptr %4, align 8, !tbaa !27
  %120 = load i8, ptr %119, align 1, !tbaa !33
  %121 = zext i8 %120 to i32
  %122 = and i32 %121, 255
  %123 = trunc i32 %122 to i16
  %124 = zext i16 %123 to i64
  %125 = load ptr, ptr %8, align 8, !tbaa !29
  %126 = getelementptr inbounds nuw %struct.H5HF_huge_bt2_indir_rec_t, ptr %125, i32 0, i32 1
  store i64 %124, ptr %126, align 8, !tbaa !32
  %127 = load ptr, ptr %4, align 8, !tbaa !27
  %128 = getelementptr inbounds nuw i8, ptr %127, i32 1
  store ptr %128, ptr %4, align 8, !tbaa !27
  %129 = load ptr, ptr %4, align 8, !tbaa !27
  %130 = load i8, ptr %129, align 1, !tbaa !33
  %131 = zext i8 %130 to i32
  %132 = and i32 %131, 255
  %133 = shl i32 %132, 8
  %134 = trunc i32 %133 to i16
  %135 = zext i16 %134 to i64
  %136 = load ptr, ptr %8, align 8, !tbaa !29
  %137 = getelementptr inbounds nuw %struct.H5HF_huge_bt2_indir_rec_t, ptr %136, i32 0, i32 1
  %138 = load i64, ptr %137, align 8, !tbaa !32
  %139 = or i64 %138, %135
  store i64 %139, ptr %137, align 8, !tbaa !32
  %140 = load ptr, ptr %4, align 8, !tbaa !27
  %141 = getelementptr inbounds nuw i8, ptr %140, i32 1
  store ptr %141, ptr %4, align 8, !tbaa !27
  br label %142

142:                                              ; preds = %118
  br label %143

143:                                              ; preds = %142
  br label %145

144:                                              ; preds = %34
  br label %145

145:                                              ; preds = %144, %143, %116, %87
  br label %146

146:                                              ; preds = %145
  br label %147

147:                                              ; preds = %146
  br label %148

148:                                              ; preds = %147
  %149 = load ptr, ptr %7, align 8, !tbaa !13
  %150 = getelementptr inbounds nuw %struct.H5HF_huge_bt2_ctx_t, ptr %149, i32 0, i32 0
  %151 = load i8, ptr %150, align 1, !tbaa !19
  %152 = zext i8 %151 to i32
  switch i32 %152, label %258 [
    i32 4, label %153
    i32 8, label %202
    i32 2, label %231
  ]

153:                                              ; preds = %148
  br label %154

154:                                              ; preds = %153
  %155 = load ptr, ptr %4, align 8, !tbaa !27
  %156 = load i8, ptr %155, align 1, !tbaa !33
  %157 = zext i8 %156 to i32
  %158 = and i32 %157, 255
  %159 = zext i32 %158 to i64
  %160 = load ptr, ptr %8, align 8, !tbaa !29
  %161 = getelementptr inbounds nuw %struct.H5HF_huge_bt2_indir_rec_t, ptr %160, i32 0, i32 2
  store i64 %159, ptr %161, align 8, !tbaa !23
  %162 = load ptr, ptr %4, align 8, !tbaa !27
  %163 = getelementptr inbounds nuw i8, ptr %162, i32 1
  store ptr %163, ptr %4, align 8, !tbaa !27
  %164 = load ptr, ptr %4, align 8, !tbaa !27
  %165 = load i8, ptr %164, align 1, !tbaa !33
  %166 = zext i8 %165 to i32
  %167 = and i32 %166, 255
  %168 = shl i32 %167, 8
  %169 = zext i32 %168 to i64
  %170 = load ptr, ptr %8, align 8, !tbaa !29
  %171 = getelementptr inbounds nuw %struct.H5HF_huge_bt2_indir_rec_t, ptr %170, i32 0, i32 2
  %172 = load i64, ptr %171, align 8, !tbaa !23
  %173 = or i64 %172, %169
  store i64 %173, ptr %171, align 8, !tbaa !23
  %174 = load ptr, ptr %4, align 8, !tbaa !27
  %175 = getelementptr inbounds nuw i8, ptr %174, i32 1
  store ptr %175, ptr %4, align 8, !tbaa !27
  %176 = load ptr, ptr %4, align 8, !tbaa !27
  %177 = load i8, ptr %176, align 1, !tbaa !33
  %178 = zext i8 %177 to i32
  %179 = and i32 %178, 255
  %180 = shl i32 %179, 16
  %181 = zext i32 %180 to i64
  %182 = load ptr, ptr %8, align 8, !tbaa !29
  %183 = getelementptr inbounds nuw %struct.H5HF_huge_bt2_indir_rec_t, ptr %182, i32 0, i32 2
  %184 = load i64, ptr %183, align 8, !tbaa !23
  %185 = or i64 %184, %181
  store i64 %185, ptr %183, align 8, !tbaa !23
  %186 = load ptr, ptr %4, align 8, !tbaa !27
  %187 = getelementptr inbounds nuw i8, ptr %186, i32 1
  store ptr %187, ptr %4, align 8, !tbaa !27
  %188 = load ptr, ptr %4, align 8, !tbaa !27
  %189 = load i8, ptr %188, align 1, !tbaa !33
  %190 = zext i8 %189 to i32
  %191 = and i32 %190, 255
  %192 = shl i32 %191, 24
  %193 = zext i32 %192 to i64
  %194 = load ptr, ptr %8, align 8, !tbaa !29
  %195 = getelementptr inbounds nuw %struct.H5HF_huge_bt2_indir_rec_t, ptr %194, i32 0, i32 2
  %196 = load i64, ptr %195, align 8, !tbaa !23
  %197 = or i64 %196, %193
  store i64 %197, ptr %195, align 8, !tbaa !23
  %198 = load ptr, ptr %4, align 8, !tbaa !27
  %199 = getelementptr inbounds nuw i8, ptr %198, i32 1
  store ptr %199, ptr %4, align 8, !tbaa !27
  br label %200

200:                                              ; preds = %154
  br label %201

201:                                              ; preds = %200
  br label %259

202:                                              ; preds = %148
  br label %203

203:                                              ; preds = %202
  call void @llvm.lifetime.start.p0(i64 8, ptr %10) #6
  %204 = load ptr, ptr %8, align 8, !tbaa !29
  %205 = getelementptr inbounds nuw %struct.H5HF_huge_bt2_indir_rec_t, ptr %204, i32 0, i32 2
  store i64 0, ptr %205, align 8, !tbaa !23
  %206 = load ptr, ptr %4, align 8, !tbaa !27
  %207 = getelementptr inbounds i8, ptr %206, i64 8
  store ptr %207, ptr %4, align 8, !tbaa !27
  store i64 0, ptr %10, align 8, !tbaa !15
  br label %208

208:                                              ; preds = %223, %203
  %209 = load i64, ptr %10, align 8, !tbaa !15
  %210 = icmp ult i64 %209, 8
  br i1 %210, label %211, label %226

211:                                              ; preds = %208
  %212 = load ptr, ptr %8, align 8, !tbaa !29
  %213 = getelementptr inbounds nuw %struct.H5HF_huge_bt2_indir_rec_t, ptr %212, i32 0, i32 2
  %214 = load i64, ptr %213, align 8, !tbaa !23
  %215 = shl i64 %214, 8
  %216 = load ptr, ptr %4, align 8, !tbaa !27
  %217 = getelementptr inbounds i8, ptr %216, i32 -1
  store ptr %217, ptr %4, align 8, !tbaa !27
  %218 = load i8, ptr %217, align 1, !tbaa !33
  %219 = zext i8 %218 to i64
  %220 = or i64 %215, %219
  %221 = load ptr, ptr %8, align 8, !tbaa !29
  %222 = getelementptr inbounds nuw %struct.H5HF_huge_bt2_indir_rec_t, ptr %221, i32 0, i32 2
  store i64 %220, ptr %222, align 8, !tbaa !23
  br label %223

223:                                              ; preds = %211
  %224 = load i64, ptr %10, align 8, !tbaa !15
  %225 = add i64 %224, 1
  store i64 %225, ptr %10, align 8, !tbaa !15
  br label %208, !llvm.loop !40

226:                                              ; preds = %208
  %227 = load ptr, ptr %4, align 8, !tbaa !27
  %228 = getelementptr inbounds i8, ptr %227, i64 8
  store ptr %228, ptr %4, align 8, !tbaa !27
  call void @llvm.lifetime.end.p0(i64 8, ptr %10) #6
  br label %229

229:                                              ; preds = %226
  br label %230

230:                                              ; preds = %229
  br label %259

231:                                              ; preds = %148
  br label %232

232:                                              ; preds = %231
  %233 = load ptr, ptr %4, align 8, !tbaa !27
  %234 = load i8, ptr %233, align 1, !tbaa !33
  %235 = zext i8 %234 to i32
  %236 = and i32 %235, 255
  %237 = trunc i32 %236 to i16
  %238 = zext i16 %237 to i64
  %239 = load ptr, ptr %8, align 8, !tbaa !29
  %240 = getelementptr inbounds nuw %struct.H5HF_huge_bt2_indir_rec_t, ptr %239, i32 0, i32 2
  store i64 %238, ptr %240, align 8, !tbaa !23
  %241 = load ptr, ptr %4, align 8, !tbaa !27
  %242 = getelementptr inbounds nuw i8, ptr %241, i32 1
  store ptr %242, ptr %4, align 8, !tbaa !27
  %243 = load ptr, ptr %4, align 8, !tbaa !27
  %244 = load i8, ptr %243, align 1, !tbaa !33
  %245 = zext i8 %244 to i32
  %246 = and i32 %245, 255
  %247 = shl i32 %246, 8
  %248 = trunc i32 %247 to i16
  %249 = zext i16 %248 to i64
  %250 = load ptr, ptr %8, align 8, !tbaa !29
  %251 = getelementptr inbounds nuw %struct.H5HF_huge_bt2_indir_rec_t, ptr %250, i32 0, i32 2
  %252 = load i64, ptr %251, align 8, !tbaa !23
  %253 = or i64 %252, %249
  store i64 %253, ptr %251, align 8, !tbaa !23
  %254 = load ptr, ptr %4, align 8, !tbaa !27
  %255 = getelementptr inbounds nuw i8, ptr %254, i32 1
  store ptr %255, ptr %4, align 8, !tbaa !27
  br label %256

256:                                              ; preds = %232
  br label %257

257:                                              ; preds = %256
  br label %259

258:                                              ; preds = %148
  br label %259

259:                                              ; preds = %258, %257, %230, %201
  br label %260

260:                                              ; preds = %259
  br label %261

261:                                              ; preds = %260
  br label %262

262:                                              ; preds = %261, %19
  call void @llvm.lifetime.end.p0(i64 8, ptr %8) #6
  call void @llvm.lifetime.end.p0(i64 8, ptr %7) #6
  ret i32 0
}