; Function Attrs: nounwind uwtable
define internal noundef i32 @H5HF__huge_bt2_indir_decode(ptr noundef %0, ptr noundef %1, ptr noundef readonly captures(none) %2) #0 {
  %4 = alloca ptr, align 8
  store ptr %0, ptr %4, align 8, !tbaa !20
  %5 = load i8, ptr @H5HF_init_g, align 1, !tbaa !3, !range !7, !noundef !8
  %6 = trunc nuw i8 %5 to i1
  %7 = load i8, ptr @H5_libterm_g, align 1, !range !7
  %8 = trunc nuw i8 %7 to i1
  %9 = xor i1 %8, true
  %10 = select i1 %6, i1 true, i1 %9
  br i1 %10, label %11, label %.loopexit, !prof !9

11:                                               ; preds = %3
  %12 = getelementptr inbounds nuw i8, ptr %2, i64 1
  %13 = load i8, ptr %12, align 1, !tbaa !12
  %14 = zext i8 %13 to i64
  call void @H5F_addr_decode_len(i64 noundef %14, ptr noundef nonnull %4, ptr noundef %1) #6
  %15 = load i8, ptr %2, align 1, !tbaa !14
  switch i8 %15, label %.loopexit [
    i8 4, label %29
    i8 8, label %16
    i8 2, label %80
  ]

16:                                               ; preds = %11
  %17 = getelementptr inbounds nuw i8, ptr %1, i64 8
  store i64 0, ptr %17, align 8, !tbaa !24
  %18 = load ptr, ptr %4, align 8, !tbaa !20
  %19 = getelementptr inbounds nuw i8, ptr %18, i64 8
  br label %20

20:                                               ; preds = %16, %20
  %.02730 = phi i64 [ 0, %16 ], [ %28, %20 ]
  %21 = phi i64 [ 0, %16 ], [ %27, %20 ]
  %22 = phi ptr [ %19, %16 ], [ %24, %20 ]
  %23 = shl i64 %21, 8
  %24 = getelementptr inbounds i8, ptr %22, i64 -1
  store ptr %24, ptr %4, align 8, !tbaa !20
  %25 = load i8, ptr %24, align 1, !tbaa !25
  %26 = zext i8 %25 to i64
  %27 = or disjoint i64 %23, %26
  store i64 %27, ptr %17, align 8, !tbaa !24
  %28 = add nuw nsw i64 %.02730, 1
  %exitcond.not = icmp eq i64 %28, 8
  br i1 %exitcond.not, label %68, label %20, !llvm.loop !29

29:                                               ; preds = %11
  %30 = load ptr, ptr %4, align 8, !tbaa !20
  %31 = load i8, ptr %30, align 1, !tbaa !25
  %32 = zext i8 %31 to i64
  %33 = getelementptr inbounds nuw i8, ptr %1, i64 8
  store i64 %32, ptr %33, align 8, !tbaa !24
  %34 = getelementptr inbounds nuw i8, ptr %30, i64 1
  store ptr %34, ptr %4, align 8, !tbaa !20
  %35 = load i8, ptr %34, align 1, !tbaa !25
  %36 = zext i8 %35 to i64
  %37 = shl nuw nsw i64 %36, 8
  %38 = or disjoint i64 %37, %32
  store i64 %38, ptr %33, align 8, !tbaa !24
  %39 = getelementptr inbounds nuw i8, ptr %30, i64 2
  store ptr %39, ptr %4, align 8, !tbaa !20
  %40 = load i8, ptr %39, align 1, !tbaa !25
  %41 = zext i8 %40 to i64
  %42 = shl nuw nsw i64 %41, 16
  %43 = or disjoint i64 %42, %38
  store i64 %43, ptr %33, align 8, !tbaa !24
  %44 = getelementptr inbounds nuw i8, ptr %30, i64 3
  store ptr %44, ptr %4, align 8, !tbaa !20
  %45 = load i8, ptr %44, align 1, !tbaa !25
  %46 = zext i8 %45 to i64
  %47 = shl nuw nsw i64 %46, 24
  %48 = or disjoint i64 %47, %43
  store i64 %48, ptr %33, align 8, !tbaa !24
  %49 = getelementptr inbounds nuw i8, ptr %30, i64 4
  store ptr %49, ptr %4, align 8, !tbaa !20
  %50 = load i8, ptr %49, align 1, !tbaa !25
  %51 = zext i8 %50 to i64
  %52 = getelementptr inbounds nuw i8, ptr %1, i64 16
  store i64 %51, ptr %52, align 8, !tbaa !16
  %53 = getelementptr inbounds nuw i8, ptr %30, i64 5
  store ptr %53, ptr %4, align 8, !tbaa !20
  %54 = load i8, ptr %53, align 1, !tbaa !25
  %55 = zext i8 %54 to i64
  %56 = shl nuw nsw i64 %55, 8
  %57 = or disjoint i64 %56, %51
  store i64 %57, ptr %52, align 8, !tbaa !16
  %58 = getelementptr inbounds nuw i8, ptr %30, i64 6
  store ptr %58, ptr %4, align 8, !tbaa !20
  %59 = load i8, ptr %58, align 1, !tbaa !25
  %60 = zext i8 %59 to i64
  %61 = shl nuw nsw i64 %60, 16
  %62 = or disjoint i64 %61, %57
  store i64 %62, ptr %52, align 8, !tbaa !16
  %63 = getelementptr inbounds nuw i8, ptr %30, i64 7
  store ptr %63, ptr %4, align 8, !tbaa !20
  %64 = load i8, ptr %63, align 1, !tbaa !25
  %65 = zext i8 %64 to i64
  %66 = shl nuw nsw i64 %65, 24
  %67 = or disjoint i64 %66, %62
  store i64 %67, ptr %52, align 8, !tbaa !16
  br label %.loopexit

68:                                               ; preds = %20
  %69 = getelementptr inbounds nuw i8, ptr %1, i64 16
  store i64 0, ptr %69, align 8, !tbaa !16
  %70 = getelementptr inbounds nuw i8, ptr %22, i64 15
  br label %71

71:                                               ; preds = %68, %71
  %.033 = phi i64 [ 0, %68 ], [ %79, %71 ]
  %72 = phi i64 [ 0, %68 ], [ %78, %71 ]
  %73 = phi ptr [ %70, %68 ], [ %75, %71 ]
  %74 = shl i64 %72, 8
  %75 = getelementptr inbounds i8, ptr %73, i64 -1
  store ptr %75, ptr %4, align 8, !tbaa !20
  %76 = load i8, ptr %75, align 1, !tbaa !25
  %77 = zext i8 %76 to i64
  %78 = or disjoint i64 %74, %77
  store i64 %78, ptr %69, align 8, !tbaa !16
  %79 = add nuw nsw i64 %.033, 1
  %exitcond34.not = icmp eq i64 %79, 8
  br i1 %exitcond34.not, label %.loopexit, label %71, !llvm.loop !30

80:                                               ; preds = %11
  %81 = load ptr, ptr %4, align 8, !tbaa !20
  %82 = load i8, ptr %81, align 1, !tbaa !25
  %83 = zext i8 %82 to i64
  %84 = getelementptr inbounds nuw i8, ptr %1, i64 8
  store i64 %83, ptr %84, align 8, !tbaa !24
  %85 = getelementptr inbounds nuw i8, ptr %81, i64 1
  store ptr %85, ptr %4, align 8, !tbaa !20
  %86 = load i8, ptr %85, align 1, !tbaa !25
  %87 = zext i8 %86 to i64
  %88 = shl nuw nsw i64 %87, 8
  %89 = or disjoint i64 %88, %83
  store i64 %89, ptr %84, align 8, !tbaa !24
  %90 = getelementptr inbounds nuw i8, ptr %81, i64 2
  store ptr %90, ptr %4, align 8, !tbaa !20
  %91 = load i8, ptr %90, align 1, !tbaa !25
  %92 = zext i8 %91 to i64
  %93 = getelementptr inbounds nuw i8, ptr %1, i64 16
  store i64 %92, ptr %93, align 8, !tbaa !16
  %94 = getelementptr inbounds nuw i8, ptr %81, i64 3
  store ptr %94, ptr %4, align 8, !tbaa !20
  %95 = load i8, ptr %94, align 1, !tbaa !25
  %96 = zext i8 %95 to i64
  %97 = shl nuw nsw i64 %96, 8
  %98 = or disjoint i64 %97, %92
  store i64 %98, ptr %93, align 8, !tbaa !16
  br label %.loopexit

.loopexit:                                        ; preds = %71, %11, %29, %80, %3
  ret i32 0
}